; Function Attrs: nounwind uwtable
define range(i32 -1, 1) i32 @H5AC_get_cache_size(ptr noundef %0, ptr noundef %1, ptr noundef %2, ptr noundef %3, ptr noundef %4) local_unnamed_addr #4 {
  %6 = load i8, ptr @H5AC_init_g, align 1, !tbaa !3, !range !7, !noundef !8
  %7 = trunc nuw i8 %6 to i1
  %8 = load i8, ptr @H5_libterm_g, align 1, !range !7
  %9 = trunc nuw i8 %8 to i1
  %10 = select i1 %7, i1 true, i1 %9
  br i1 %10, label %11, label %.thread, !prof !9

.thread:                                          ; preds = %5
  store i8 1, ptr @H5AC_init_g, align 1, !tbaa !3
  br label %14

11:                                               ; preds = %5
  %12 = xor i1 %9, true
  %13 = select i1 %7, i1 true, i1 %12
  br i1 %13, label %14, label %21, !prof !41

14:                                               ; preds = %.thread, %11
  %15 = tail call i32 @H5C_get_cache_size(ptr noundef %0, ptr noundef %1, ptr noundef %2, ptr noundef %3, ptr noundef %4) #8
  %16 = icmp slt i32 %15, 0
  br i1 %16, label %17, label %21

17:                                               ; preds = %14
  %18 = load i64, ptr @H5E_CACHE_g, align 8, !tbaa !42
  %19 = load i64, ptr @H5E_SYSTEM_g, align 8, !tbaa !42
  %20 = tail call i32 (ptr, ptr, i32, i64, i64, ptr, ...) @H5E_printf_stack(ptr noundef nonnull @.str, ptr noundef nonnull @__func__.H5AC_get_cache_size, i32 noundef 1707, i64 noundef %18, i64 noundef %19, ptr noundef nonnull @.str.39) #8
  br label %21

21:                                               ; preds = %17, %14, %11
  %.0 = phi i32 [ -1, %17 ], [ 0, %14 ], [ 0, %11 ]
  ret i32 %.0
}